target datalayout = "e-m:e-p270:32:32-p271:32:32-p272:64:64-i64:64-i128:128-f80:128-n8:16:32:64-S128"
target triple = "x86_64-pc-linux-gnu"

%struct.timespec = type { i64, i64 }

; Function Attrs: nounwind uwtable
define internal i64 @Abc_Clock() #0 {
  %1 = alloca i64, align 8
  %2 = alloca %struct.timespec, align 8
  %3 = alloca i64, align 8
  %4 = call i32 @clock_gettime(i32 noundef 1, ptr noundef %2) #10
  %5 = icmp slt i32 %4, 0
  br i1 %5, label %6, label %7

6:                                                ; preds = %0
  store i64 -1, ptr %1, align 8
  br label %18

7:                                                ; preds = %0
  %8 = getelementptr inbounds %struct.timespec, ptr %2, i32 0, i32 0
  %9 = load i64, ptr %8, align 8
  %10 = mul nsw i64 %9, 1000000
  store i64 %10, ptr %3, align 8
  %11 = getelementptr inbounds %struct.timespec, ptr %2, i32 0, i32 1
  %12 = load i64, ptr %11, align 8
  %13 = mul nsw i64 %12, 1000000
  %14 = sdiv i64 %13, 1000000000
  %15 = load i64, ptr %3, align 8
  %16 = add nsw i64 %15, %14
  store i64 %16, ptr %3, align 8
  %17 = load i64, ptr %3, align 8
  store i64 %17, ptr %1, align 8
  br label %18

18:                                               ; preds = %7, %6
  %19 = load i64, ptr %1, align 8
  ret i64 %19
}

; Function Attrs: nounwind uwtable
define ptr @Abc_NtkDrwsat(ptr noundef %0, i32 noundef %1, i32 noundef %2) #0 {
  %4 = alloca ptr, align 8
  %5 = alloca ptr, align 8
  %6 = alloca i32, align 4
  %7 = alloca i32, align 4
  %8 = alloca ptr, align 8
  %9 = alloca ptr, align 8
  %10 = alloca ptr, align 8
  %11 = alloca i64, align 8
  store ptr %0, ptr %5, align 8
  store i32 %1, ptr %6, align 4
  store i32 %2, ptr %7, align 4
  %12 = load ptr, ptr %5, align 8
  %13 = call ptr @Abc_NtkToDar(ptr noundef %12, i32 noundef 0, i32 noundef 0)
  store ptr %13, ptr %8, align 8
  %14 = load ptr, ptr %8, align 8
  %15 = icmp eq ptr %14, null
  br i1 %15, label %16, label %17

16:                                               ; preds = %3
  store ptr null, ptr %4, align 8
  br label %29

17:                                               ; preds = %3
  %18 = call i64 @Abc_Clock()
  store i64 %18, ptr %11, align 8
  %19 = load ptr, ptr %8, align 8
  store ptr %19, ptr %9, align 8
  %20 = load i32, ptr %6, align 4
  %21 = load i32, ptr %7, align 4
  %22 = call ptr @Dar_ManRwsat(ptr noundef %19, i32 noundef %20, i32 noundef %21)
  store ptr %22, ptr %8, align 8
  %23 = load ptr, ptr %9, align 8
  call void @Aig_ManStop(ptr noundef %23)
  %24 = load ptr, ptr %5, align 8
  %25 = load ptr, ptr %8, align 8
  %26 = call ptr @Abc_NtkFromDar(ptr noundef %24, ptr noundef %25)
  store ptr %26, ptr %10, align 8
  %27 = load ptr, ptr %8, align 8
  call void @Aig_ManStop(ptr noundef %27)
  %28 = load ptr, ptr %10, align 8
  store ptr %28, ptr %4, align 8
  br label %29

29:                                               ; preds = %17, %16
  %30 = load ptr, ptr %4, align 8
  ret ptr %30
}