; Function Attrs: nounwind uwtable
define noundef ptr @Abc_NtkDrwsat(ptr noundef %0, i32 noundef %1, i32 noundef %2) local_unnamed_addr #1 {
  %4 = alloca %struct.timespec, align 8
  %5 = tail call ptr @Abc_NtkToDar(ptr noundef %0, i32 noundef 0, i32 noundef 0)
  %6 = icmp eq ptr %5, null
  br i1 %6, label %10, label %Abc_Clock.exit

Abc_Clock.exit:                                   ; preds = %3
  call void @llvm.lifetime.start.p0(i64 16, ptr nonnull %4)
  %7 = call i32 @clock_gettime(i32 noundef 1, ptr noundef nonnull %4) #19
  call void @llvm.lifetime.end.p0(i64 16, ptr nonnull %4)
  %8 = call ptr @Dar_ManRwsat(ptr noundef nonnull %5, i32 noundef %1, i32 noundef %2) #19
  call void @Aig_ManStop(ptr noundef nonnull %5) #19
  %9 = call ptr @Abc_NtkFromDar(ptr noundef %0, ptr noundef %8)
  call void @Aig_ManStop(ptr noundef %8) #19
  br label %10

10:                                               ; preds = %3, %Abc_Clock.exit
  %.0 = phi ptr [ %9, %Abc_Clock.exit ], [ null, %3 ]
  ret ptr %.0
}